; Function Attrs: null_pointer_is_valid sspstrong uwtable
define hidden void @wmem_block_allocator_init(ptr noundef writeonly captures(none) initializes((0, 48), (56, 64)) %0) local_unnamed_addr #0 {
  %2 = tail call noalias dereferenceable_or_null(24) ptr @wmem_alloc(ptr noundef null, i64 noundef 24) #8
  store ptr @wmem_block_alloc, ptr %0, align 8
  %3 = getelementptr inbounds nuw i8, ptr %0, i64 16
  store ptr @wmem_block_realloc, ptr %3, align 8
  %4 = getelementptr inbounds nuw i8, ptr %0, i64 8
  store ptr @wmem_block_free, ptr %4, align 8
  %5 = getelementptr inbounds nuw i8, ptr %0, i64 24
  store ptr @wmem_block_free_all, ptr %5, align 8
  %6 = getelementptr inbounds nuw i8, ptr %0, i64 32
  store ptr @wmem_block_gc, ptr %6, align 8
  %7 = getelementptr inbounds nuw i8, ptr %0, i64 40
  store ptr @wmem_block_allocator_cleanup, ptr %7, align 8
  %8 = getelementptr inbounds nuw i8, ptr %0, i64 56
  store ptr %2, ptr %8, align 8
  tail call void @llvm.memset.p0.i64(ptr noundef align 8 dereferenceable(24) %2, i8 0, i64 24, i1 false)
  ret void
}